; Function Attrs: mustprogress nounwind uwtable
define internal void @_ZNK12_GLOBAL__N_18Argument16writeHasChildrenERN4llvm11raw_ostreamE(ptr nocapture nonnull readnone align 8 %0, ptr noundef nonnull align 8 dereferenceable(48) %1) unnamed_addr #0 align 2 {
  %3 = getelementptr inbounds nuw i8, ptr %1, i64 24
  %4 = load ptr, ptr %3, align 8
  %5 = getelementptr inbounds nuw i8, ptr %1, i64 32
  %6 = load ptr, ptr %5, align 8
  %7 = ptrtoint ptr %4 to i64
  %8 = ptrtoint ptr %6 to i64
  %9 = sub i64 %7, %8
  %10 = icmp ult i64 %9, 5
  br i1 %10, label %11, label %13

11:                                               ; preds = %2
  %12 = tail call noundef nonnull align 8 dereferenceable(48) ptr @_ZN4llvm11raw_ostream5writeEPKcm(ptr noundef nonnull align 8 dereferenceable(48) %1, ptr noundef nonnull @.str.61, i64 noundef 5) #22
  br label %_ZN4llvm11raw_ostreamlsEPKc.exit

13:                                               ; preds = %2
  tail call void @llvm.memcpy.p0.p0.i64(ptr noundef nonnull align 1 dereferenceable(5) %6, ptr noundef nonnull align 1 dereferenceable(5) @.str.61, i64 5, i1 false)
  %14 = load ptr, ptr %5, align 8
  %15 = getelementptr inbounds i8, ptr %14, i64 5
  store ptr %15, ptr %5, align 8
  br label %_ZN4llvm11raw_ostreamlsEPKc.exit

_ZN4llvm11raw_ostreamlsEPKc.exit:                 ; preds = %11, %13
  ret void
}